target datalayout = "e-m:e-p270:32:32-p271:32:32-p272:64:64-i64:64-i128:128-f80:128-n8:16:32:64-S128"
target triple = "x86_64-pc-linux-gnu"

%struct.PageHeaderData = type { %struct.PageXLogRecPtr, i16, i16, i16, i16, i16, i16, i32, [0 x %struct.ItemIdData] }
%struct.PageXLogRecPtr = type { i32, i32 }
%struct.ItemIdData = type { i32 }
%struct.BrinSpecialSpace = type { [4 x i16] }
%struct.BrinTuple = type { i32, i8 }

@InterruptPending = external global i32, align 4
@LocalBufferBlockPointers = external global ptr, align 8
@BufferBlocks = external global ptr, align 8

; Function Attrs: inlinehint nounwind uwtable
define internal ptr @BufferGetBlock(i32 noundef %0) #4 {
  %2 = alloca ptr, align 8
  %3 = alloca i32, align 4
  store i32 %0, ptr %3, align 4
  %4 = load i32, ptr %3, align 4
  %5 = icmp slt i32 %4, 0
  br i1 %5, label %6, label %14

6:                                                ; preds = %1
  %7 = load ptr, ptr @LocalBufferBlockPointers, align 8
  %8 = load i32, ptr %3, align 4
  %9 = sub i32 0, %8
  %10 = sub i32 %9, 1
  %11 = sext i32 %10 to i64
  %12 = getelementptr inbounds ptr, ptr %7, i64 %11
  %13 = load ptr, ptr %12, align 8
  store ptr %13, ptr %2, align 8
  br label %21

14:                                               ; preds = %1
  %15 = load ptr, ptr @BufferBlocks, align 8
  %16 = load i32, ptr %3, align 4
  %17 = sub i32 %16, 1
  %18 = sext i32 %17 to i64
  %19 = mul i64 %18, 8192
  %20 = getelementptr inbounds nuw i8, ptr %15, i64 %19
  store ptr %20, ptr %2, align 8
  br label %21

21:                                               ; preds = %14, %6
  %22 = load ptr, ptr %2, align 8
  ret ptr %22
}

; Function Attrs: inlinehint nounwind uwtable
define internal void @PageValidateSpecialPointer(ptr noundef %0) #4 {
  %2 = alloca ptr, align 8
  store ptr %0, ptr %2, align 8
  ret void
}

; Function Attrs: inlinehint nounwind uwtable
define internal ptr @PageGetItem(ptr noundef %0, ptr noundef %1) #4 {
  %3 = alloca ptr, align 8
  %4 = alloca ptr, align 8
  store ptr %0, ptr %3, align 8
  store ptr %1, ptr %4, align 8
  %5 = load ptr, ptr %3, align 8
  %6 = load ptr, ptr %4, align 8
  %7 = load i32, ptr %6, align 4
  %8 = and i32 %7, 32767
  %9 = sext i32 %8 to i64
  %10 = getelementptr inbounds i8, ptr %5, i64 %9
  ret ptr %10
}

; Function Attrs: inlinehint nounwind uwtable
define internal ptr @PageGetItemId(ptr noundef %0, i16 noundef zeroext %1) #4 {
  %3 = alloca ptr, align 8
  %4 = alloca i16, align 2
  store ptr %0, ptr %3, align 8
  store i16 %1, ptr %4, align 2
  %5 = load ptr, ptr %3, align 8
  %6 = getelementptr inbounds nuw %struct.PageHeaderData, ptr %5, i32 0, i32 8
  %7 = load i16, ptr %4, align 2
  %8 = zext i16 %7 to i32
  %9 = sub i32 %8, 1
  %10 = sext i32 %9 to i64
  %11 = getelementptr inbounds [0 x %struct.ItemIdData], ptr %6, i64 0, i64 %10
  ret ptr %11
}

; Function Attrs: inlinehint nounwind uwtable
define internal zeroext i16 @PageGetMaxOffsetNumber(ptr noundef %0) #4 {
  %2 = alloca i16, align 2
  %3 = alloca ptr, align 8
  %4 = alloca ptr, align 8
  %5 = alloca i32, align 4
  store ptr %0, ptr %3, align 8
  call void @llvm.lifetime.start.p0(i64 8, ptr %4) #7
  %6 = load ptr, ptr %3, align 8
  store ptr %6, ptr %4, align 8
  %7 = load ptr, ptr %4, align 8
  %8 = getelementptr inbounds nuw %struct.PageHeaderData, ptr %7, i32 0, i32 3
  %9 = load i16, ptr %8, align 4
  %10 = zext i16 %9 to i64
  %11 = icmp ule i64 %10, 24
  br i1 %11, label %12, label %13

12:                                               ; preds = %1
  store i16 0, ptr %2, align 2
  store i32 1, ptr %5, align 4
  br label %21

13:                                               ; preds = %1
  %14 = load ptr, ptr %4, align 8
  %15 = getelementptr inbounds nuw %struct.PageHeaderData, ptr %14, i32 0, i32 3
  %16 = load i16, ptr %15, align 4
  %17 = zext i16 %16 to i64
  %18 = sub i64 %17, 24
  %19 = udiv i64 %18, 4
  %20 = trunc i64 %19 to i16
  store i16 %20, ptr %2, align 2
  store i32 1, ptr %5, align 4
  br label %21

21:                                               ; preds = %13, %12
  call void @llvm.lifetime.end.p0(i64 8, ptr %4) #7
  %22 = load i16, ptr %2, align 2
  ret i16 %22
}

; Function Attrs: inlinehint nounwind uwtable
define internal ptr @BufferGetPage(i32 noundef %0) #4 {
  %2 = alloca i32, align 4
  store i32 %0, ptr %2, align 4
  %3 = load i32, ptr %2, align 4
  %4 = call ptr @BufferGetBlock(i32 noundef %3)
  ret ptr %4
}

; Function Attrs: nounwind uwtable
define dso_local void @brin_evacuate_page(ptr noundef %0, i32 noundef %1, ptr noundef %2, i32 noundef %3) #0 {
  %5 = alloca ptr, align 8
  %6 = alloca i32, align 4
  %7 = alloca ptr, align 8
  %8 = alloca i32, align 4
  %9 = alloca i16, align 2
  %10 = alloca i16, align 2
  %11 = alloca ptr, align 8
  %12 = alloca ptr, align 8
  %13 = alloca i64, align 8
  %14 = alloca ptr, align 8
  %15 = alloca i64, align 8
  %16 = alloca ptr, align 8
  %17 = alloca i32, align 4
  store ptr %0, ptr %5, align 8
  store i32 %1, ptr %6, align 4
  store ptr %2, ptr %7, align 8
  store i32 %3, ptr %8, align 4
  call void @llvm.lifetime.start.p0(i64 2, ptr %9) #7
  call void @llvm.lifetime.start.p0(i64 2, ptr %10) #7
  call void @llvm.lifetime.start.p0(i64 8, ptr %11) #7
  call void @llvm.lifetime.start.p0(i64 8, ptr %12) #7
  store ptr null, ptr %12, align 8
  call void @llvm.lifetime.start.p0(i64 8, ptr %13) #7
  store i64 0, ptr %13, align 8
  %18 = load i32, ptr %8, align 4
  %19 = call ptr @BufferGetPage(i32 noundef %18)
  store ptr %19, ptr %11, align 8
  %20 = load ptr, ptr %11, align 8
  %21 = call zeroext i16 @PageGetMaxOffsetNumber(ptr noundef %20)
  store i16 %21, ptr %10, align 2
  store i16 1, ptr %9, align 2
  br label %22

22:                                               ; preds = %98, %4
  %23 = load i16, ptr %9, align 2
  %24 = zext i16 %23 to i32
  %25 = load i16, ptr %10, align 2
  %26 = zext i16 %25 to i32
  %27 = icmp sle i32 %24, %26
  br i1 %27, label %28, label %101

28:                                               ; preds = %22
  call void @llvm.lifetime.start.p0(i64 8, ptr %14) #7
  call void @llvm.lifetime.start.p0(i64 8, ptr %15) #7
  call void @llvm.lifetime.start.p0(i64 8, ptr %16) #7
  br label %29

29:                                               ; preds = %28
  %30 = load volatile i32, ptr @InterruptPending, align 4
  %31 = icmp ne i32 %30, 0
  %32 = zext i1 %31 to i32
  %33 = sext i32 %32 to i64
  %34 = call i64 @llvm.expect.i64(i64 %33, i64 0)
  %35 = icmp ne i64 %34, 0
  br i1 %35, label %36, label %37

36:                                               ; preds = %29
  call void @ProcessInterrupts()
  br label %37

37:                                               ; preds = %36, %29
  br label %38

38:                                               ; preds = %37
  br label %39

39:                                               ; preds = %38
  %40 = load ptr, ptr %11, align 8
  %41 = load i16, ptr %9, align 2
  %42 = call ptr @PageGetItemId(ptr noundef %40, i16 noundef zeroext %41)
  store ptr %42, ptr %16, align 8
  %43 = load ptr, ptr %16, align 8
  %44 = load i32, ptr %43, align 4
  %45 = lshr i32 %44, 15
  %46 = and i32 %45, 3
  %47 = icmp ne i32 %46, 0
  br i1 %47, label %48, label %94

48:                                               ; preds = %39
  %49 = load ptr, ptr %16, align 8
  %50 = load i32, ptr %49, align 4
  %51 = lshr i32 %50, 17
  %52 = zext i32 %51 to i64
  store i64 %52, ptr %15, align 8
  %53 = load ptr, ptr %11, align 8
  %54 = load ptr, ptr %16, align 8
  %55 = call ptr @PageGetItem(ptr noundef %53, ptr noundef %54)
  store ptr %55, ptr %14, align 8
  %56 = load ptr, ptr %14, align 8
  %57 = load i64, ptr %15, align 8
  %58 = load ptr, ptr %12, align 8
  %59 = call ptr @brin_copy_tuple(ptr noundef %56, i64 noundef %57, ptr noundef %58, ptr noundef %13)
  store ptr %59, ptr %14, align 8
  %60 = load i32, ptr %8, align 4
  call void @LockBuffer(i32 noundef %60, i32 noundef 0)
  %61 = load ptr, ptr %5, align 8
  %62 = load i32, ptr %6, align 4
  %63 = load ptr, ptr %7, align 8
  %64 = load ptr, ptr %14, align 8
  %65 = getelementptr inbounds nuw %struct.BrinTuple, ptr %64, i32 0, i32 0
  %66 = load i32, ptr %65, align 4
  %67 = load i32, ptr %8, align 4
  %68 = load i16, ptr %9, align 2
  %69 = load ptr, ptr %14, align 8
  %70 = load i64, ptr %15, align 8
  %71 = load ptr, ptr %14, align 8
  %72 = load i64, ptr %15, align 8
  %73 = call zeroext i1 @brin_doupdate(ptr noundef %61, i32 noundef %62, ptr noundef %63, i32 noundef %66, i32 noundef %67, i16 noundef zeroext %68, ptr noundef %69, i64 noundef %70, ptr noundef %71, i64 noundef %72, i1 noundef zeroext false)
  br i1 %73, label %77, label %74

74:                                               ; preds = %48
  %75 = load i16, ptr %9, align 2
  %76 = add i16 %75, -1
  store i16 %76, ptr %9, align 2
  br label %77

77:                                               ; preds = %74, %48
  %78 = load i32, ptr %8, align 4
  call void @LockBuffer(i32 noundef %78, i32 noundef 1)
  %79 = load ptr, ptr %11, align 8
  call void @PageValidateSpecialPointer(ptr noundef %79)
  %80 = load ptr, ptr %11, align 8
  %81 = load ptr, ptr %11, align 8
  %82 = getelementptr inbounds nuw %struct.PageHeaderData, ptr %81, i32 0, i32 5
  %83 = load i16, ptr %82, align 4
  %84 = zext i16 %83 to i32
  %85 = sext i32 %84 to i64
  %86 = getelementptr inbounds i8, ptr %80, i64 %85
  %87 = getelementptr inbounds nuw %struct.BrinSpecialSpace, ptr %86, i32 0, i32 0
  %88 = getelementptr inbounds nuw [4 x i16], ptr %87, i64 0, i64 3
  %89 = load i16, ptr %88, align 2
  %90 = zext i16 %89 to i32
  %91 = icmp eq i32 %90, 61587
  br i1 %91, label %93, label %92

92:                                               ; preds = %77
  store i32 2, ptr %17, align 4
  br label %95

93:                                               ; preds = %77
  br label %94

94:                                               ; preds = %93, %39
  store i32 0, ptr %17, align 4
  br label %95

95:                                               ; preds = %94, %92
  call void @llvm.lifetime.end.p0(i64 8, ptr %16) #7
  call void @llvm.lifetime.end.p0(i64 8, ptr %15) #7
  call void @llvm.lifetime.end.p0(i64 8, ptr %14) #7
  %96 = load i32, ptr %17, align 4
  switch i32 %96, label %103 [
    i32 0, label %97
    i32 2, label %101
  ]

97:                                               ; preds = %95
  br label %98

98:                                               ; preds = %97
  %99 = load i16, ptr %9, align 2
  %100 = add i16 %99, 1
  store i16 %100, ptr %9, align 2
  br label %22, !llvm.loop !9

101:                                              ; preds = %95, %22
  %102 = load i32, ptr %8, align 4
  call void @UnlockReleaseBuffer(i32 noundef %102)
  call void @llvm.lifetime.end.p0(i64 8, ptr %13) #7
  call void @llvm.lifetime.end.p0(i64 8, ptr %12) #7
  call void @llvm.lifetime.end.p0(i64 8, ptr %11) #7
  call void @llvm.lifetime.end.p0(i64 2, ptr %10) #7
  call void @llvm.lifetime.end.p0(i64 2, ptr %9) #7
  ret void

103:                                              ; preds = %95
  unreachable
}