; Function Attrs: nounwind uwtable
define dso_local void @brin_evacuate_page(ptr noundef %0, i32 noundef %1, ptr noundef %2, i32 noundef %3) local_unnamed_addr #0 {
  %5 = alloca i64, align 8
  call void @llvm.lifetime.start.p0(i64 8, ptr nonnull %5) #5
  store i64 0, ptr %5, align 8
  %6 = icmp slt i32 %3, 0
  br i1 %6, label %7, label %13

7:                                                ; preds = %4
  %8 = load ptr, ptr @LocalBufferBlockPointers, align 8
  %9 = xor i32 %3, -1
  %10 = zext nneg i32 %9 to i64
  %11 = getelementptr inbounds nuw ptr, ptr %8, i64 %10
  %12 = load ptr, ptr %11, align 8
  br label %BufferGetPage.exit

13:                                               ; preds = %4
  %14 = load ptr, ptr @BufferBlocks, align 8
  %15 = add nsw i32 %3, -1
  %16 = sext i32 %15 to i64
  %17 = shl nsw i64 %16, 13
  %18 = getelementptr inbounds nuw i8, ptr %14, i64 %17
  br label %BufferGetPage.exit

BufferGetPage.exit:                               ; preds = %7, %13
  %.0.i.i = phi ptr [ %12, %7 ], [ %18, %13 ]
  %19 = getelementptr i8, ptr %.0.i.i, i64 12
  %.val = load i16, ptr %19, align 4
  %20 = icmp ult i16 %.val, 25
  %21 = zext i16 %.val to i32
  %22 = add nuw nsw i32 %21, 262120
  %23 = lshr i32 %22, 2
  %24 = trunc i32 %23 to i16
  %invariant.gep = getelementptr inbounds nuw i8, ptr %.0.i.i, i64 6
  %.not4043 = icmp eq i16 %24, 0
  %.not40 = select i1 %20, i1 true, i1 %.not4043
  br i1 %.not40, label %._crit_edge, label %.lr.ph

.lr.ph:                                           ; preds = %BufferGetPage.exit
  %25 = getelementptr inbounds nuw i8, ptr %.0.i.i, i64 24
  %26 = getelementptr inbounds nuw i8, ptr %.0.i.i, i64 16
  br label %27

27:                                               ; preds = %.lr.ph, %select.unfold
  %.03141 = phi i16 [ 1, %.lr.ph ], [ %50, %select.unfold ]
  %28 = load volatile i32, ptr @InterruptPending, align 4
  %.not32 = icmp eq i32 %28, 0
  br i1 %.not32, label %30, label %29, !prof !6

29:                                               ; preds = %27
  call void @ProcessInterrupts() #5
  br label %30

30:                                               ; preds = %29, %27
  %31 = zext i16 %.03141 to i64
  %32 = add nsw i64 %31, -1
  %33 = getelementptr inbounds [0 x %struct.ItemIdData], ptr %25, i64 0, i64 %32
  %34 = load i32, ptr %33, align 4
  %35 = and i32 %34, 98304
  %.not33 = icmp eq i32 %35, 0
  br i1 %.not33, label %select.unfold, label %36

36:                                               ; preds = %30
  %37 = lshr i32 %34, 17
  %38 = zext nneg i32 %37 to i64
  %39 = and i32 %34, 32767
  %40 = zext nneg i32 %39 to i64
  %41 = getelementptr inbounds nuw i8, ptr %.0.i.i, i64 %40
  %42 = call ptr @brin_copy_tuple(ptr noundef %41, i64 noundef %38, ptr noundef null, ptr noundef nonnull %5) #5
  call void @LockBuffer(i32 noundef %3, i32 noundef 0) #5
  %43 = load i32, ptr %42, align 4
  %44 = call zeroext i1 @brin_doupdate(ptr noundef %0, i32 noundef %1, ptr noundef %2, i32 noundef %43, i32 noundef %3, i16 noundef zeroext %.03141, ptr noundef nonnull %42, i64 noundef %38, ptr noundef nonnull %42, i64 noundef %38, i1 noundef zeroext false)
  %not. = xor i1 %44, true
  %45 = sext i1 %not. to i16
  %spec.select = add i16 %.03141, %45
  call void @LockBuffer(i32 noundef %3, i32 noundef 1) #5
  %46 = load i16, ptr %26, align 4
  %47 = zext i16 %46 to i64
  %gep = getelementptr inbounds nuw i8, ptr %invariant.gep, i64 %47
  %48 = load i16, ptr %gep, align 2
  %49 = icmp eq i16 %48, -3949
  br i1 %49, label %select.unfold, label %._crit_edge

select.unfold:                                    ; preds = %36, %30
  %.3.ph = phi i16 [ %.03141, %30 ], [ %spec.select, %36 ]
  %50 = add i16 %.3.ph, 1
  %.not = icmp ugt i16 %50, %24
  br i1 %.not, label %._crit_edge, label %27, !llvm.loop !11

._crit_edge:                                      ; preds = %select.unfold, %36, %BufferGetPage.exit
  call void @UnlockReleaseBuffer(i32 noundef %3) #5
  call void @llvm.lifetime.end.p0(i64 8, ptr nonnull %5) #5
  ret void
}